; Function Attrs: mustprogress uwtable
define dso_local noundef nonnull align 8 dereferenceable(26) ptr @_ZNK3net19QuicFixedIPEndPoint16GetReceivedValueEv(ptr noundef nonnull readonly align 8 dereferenceable(89) %this) local_unnamed_addr #0 align 2 personality ptr @__gxx_personality_v0 {
entry:
  %ref.tmp2 = alloca %"class.logging::LogMessage", align 8
  %ref.tmp6 = alloca %"class.std::__cxx11::basic_string", align 8
  %call = tail call noundef zeroext i1 @_ZN7logging22ShouldCreateLogMessageEi(i32 noundef 2)
  br i1 %call, label %land.lhs.true, label %cleanup.done18

land.lhs.true:                                    ; preds = %entry
  %has_receive_value_ = getelementptr inbounds i8, ptr %this, i64 88
  %0 = load i8, ptr %has_receive_value_, align 8
  %1 = and i8 %0, 1
  %tobool.not = icmp eq i8 %1, 0
  br i1 %tobool.not, label %cond.false, label %cleanup.done18

cond.false:                                       ; preds = %land.lhs.true
  call void @_ZN7logging10LogMessageC1EPKcii(ptr noundef nonnull align 8 dereferenceable(404) %ref.tmp2, ptr noundef nonnull @.str.2, i32 noundef 367, i32 noundef 2)
  %stream_.i = getelementptr inbounds i8, ptr %ref.tmp2, i64 8
  %call5 = invoke noundef nonnull align 8 dereferenceable(8) ptr @_ZStlsISt11char_traitsIcEERSt13basic_ostreamIcT_ES5_PKc(ptr noundef nonnull align 8 dereferenceable(8) %stream_.i, ptr noundef nonnull @.str.7)
          to label %invoke.cont4 unwind label %lpad

invoke.cont4:                                     ; preds = %cond.false
  %tag_ = getelementptr inbounds i8, ptr %this, i64 8
  %2 = load i32, ptr %tag_, align 8
  invoke void @_ZN3net9QuicUtils11TagToStringB5cxx11Ej(ptr nonnull sret(%"class.std::__cxx11::basic_string") align 8 %ref.tmp6, i32 noundef %2)
          to label %invoke.cont7 unwind label %lpad

invoke.cont7:                                     ; preds = %invoke.cont4
  %call11 = invoke noundef nonnull align 8 dereferenceable(8) ptr @_ZStlsIcSt11char_traitsIcESaIcEERSt13basic_ostreamIT_T0_ES7_RKNSt7__cxx1112basic_stringIS4_S5_T1_EE(ptr noundef nonnull align 8 dereferenceable(8) %call5, ptr noundef nonnull align 8 dereferenceable(32) %ref.tmp6)
          to label %invoke.cont10 unwind label %lpad9

invoke.cont10:                                    ; preds = %invoke.cont7
  call void @_ZNSt7__cxx1112basic_stringIcSt11char_traitsIcESaIcEED1Ev(ptr noundef nonnull align 8 dereferenceable(32) %ref.tmp6) #17
  call void @_ZN7logging10LogMessageD1Ev(ptr noundef nonnull align 8 dereferenceable(404) %ref.tmp2) #17
  br label %cleanup.done18

cleanup.done18:                                   ; preds = %land.lhs.true, %entry, %invoke.cont10
  %receive_value_ = getelementptr inbounds i8, ptr %this, i64 56
  ret ptr %receive_value_

lpad:                                             ; preds = %invoke.cont4, %cond.false
  %3 = landingpad { ptr, i32 }
          cleanup
  br label %cleanup.action20

lpad9:                                            ; preds = %invoke.cont7
  %4 = landingpad { ptr, i32 }
          cleanup
  call void @_ZNSt7__cxx1112basic_stringIcSt11char_traitsIcESaIcEED1Ev(ptr noundef nonnull align 8 dereferenceable(32) %ref.tmp6) #17
  br label %cleanup.action20

cleanup.action20:                                 ; preds = %lpad, %lpad9
  %.pn = phi { ptr, i32 } [ %4, %lpad9 ], [ %3, %lpad ]
  call void @_ZN7logging10LogMessageD1Ev(ptr noundef nonnull align 8 dereferenceable(404) %ref.tmp2) #17
  resume { ptr, i32 } %.pn
}